target datalayout = "e-m:e-p270:32:32-p271:32:32-p272:64:64-i64:64-i128:128-f80:128-n8:16:32:64-S128"
target triple = "x86_64-pc-linux-gnu"

%struct.st_engine_pile = type { i32, ptr, ptr, i32 }
%struct.st_engine_pile_doall = type { ptr, ptr }

; Function Attrs: nounwind uwtable
define internal void @int_dall(ptr noundef %0, ptr noundef %1) #0 {
  %3 = alloca ptr, align 8
  %4 = alloca ptr, align 8
  store ptr %0, ptr %3, align 8, !tbaa !20
  store ptr %1, ptr %4, align 8, !tbaa !48
  %5 = load ptr, ptr %4, align 8, !tbaa !48
  %6 = getelementptr inbounds nuw %struct.st_engine_pile_doall, ptr %5, i32 0, i32 0
  %7 = load ptr, ptr %6, align 8, !tbaa !45
  %8 = load ptr, ptr %3, align 8, !tbaa !20
  %9 = getelementptr inbounds nuw %struct.st_engine_pile, ptr %8, i32 0, i32 0
  %10 = load i32, ptr %9, align 8, !tbaa !17
  %11 = load ptr, ptr %3, align 8, !tbaa !20
  %12 = getelementptr inbounds nuw %struct.st_engine_pile, ptr %11, i32 0, i32 1
  %13 = load ptr, ptr %12, align 8, !tbaa !23
  %14 = load ptr, ptr %3, align 8, !tbaa !20
  %15 = getelementptr inbounds nuw %struct.st_engine_pile, ptr %14, i32 0, i32 2
  %16 = load ptr, ptr %15, align 8, !tbaa !24
  %17 = load ptr, ptr %4, align 8, !tbaa !48
  %18 = getelementptr inbounds nuw %struct.st_engine_pile_doall, ptr %17, i32 0, i32 1
  %19 = load ptr, ptr %18, align 8, !tbaa !47
  call void %7(i32 noundef %10, ptr noundef %13, ptr noundef %16, ptr noundef %19)
  ret void
}