; Function Attrs: nounwind uwtable
define internal void @int_dall(ptr noundef readonly captures(none) %0, ptr noundef readonly captures(none) %1) #2 {
  %3 = load ptr, ptr %1, align 8, !tbaa !34
  %4 = load i32, ptr %0, align 8, !tbaa !11
  %5 = getelementptr inbounds nuw i8, ptr %0, i64 8
  %6 = load ptr, ptr %5, align 8, !tbaa !16
  %7 = getelementptr inbounds nuw i8, ptr %0, i64 16
  %8 = load ptr, ptr %7, align 8, !tbaa !17
  %9 = getelementptr inbounds nuw i8, ptr %1, i64 8
  %10 = load ptr, ptr %9, align 8, !tbaa !36
  tail call void %3(i32 noundef %4, ptr noundef %6, ptr noundef %8, ptr noundef %10) #7
  ret void
}